; Function Attrs: mustprogress uwtable
define void @_ZN2cv11VideoWriterC2ERKNSt7__cxx1112basic_stringIcSt11char_traitsIcESaIcEEEidNS_5Size_IiEEb(ptr noundef nonnull align 8 dereferenceable(40) initializes((0, 40)) %0, ptr noundef nonnull align 8 dereferenceable(32) %1, i32 noundef %2, double noundef %3, i64 %4, i1 noundef zeroext %5) unnamed_addr #3 align 2 personality ptr @__gxx_personality_v0 {
  %7 = alloca %"class.cv::Size_", align 8
  %8 = alloca %"class.std::vector", align 8
  store ptr getelementptr inbounds nuw inrange(-16, 80) (i8, ptr @_ZTVN2cv11VideoWriterE, i64 16), ptr %0, align 8, !tbaa !10
  %9 = getelementptr inbounds nuw i8, ptr %0, i64 8
  tail call void @llvm.memset.p0.i64(ptr noundef nonnull align 8 dereferenceable(32) %9, i8 0, i64 32, i1 false)
  call void @llvm.lifetime.start.p0(i64 8, ptr nonnull %7)
  store i64 %4, ptr %7, align 8
  call void @llvm.lifetime.start.p0(i64 24, ptr nonnull %8) #27
  %10 = invoke noalias noundef nonnull dereferenceable(8) ptr @_Znwm(i64 noundef 8) #30
          to label %.noexc unwind label %24

.noexc:                                           ; preds = %6
  %11 = zext i1 %5 to i32
  store ptr %10, ptr %8, align 8, !tbaa !27
  %12 = getelementptr inbounds nuw i8, ptr %10, i64 8
  %13 = getelementptr inbounds nuw i8, ptr %8, i64 16
  store ptr %12, ptr %13, align 8, !tbaa !271
  store i32 4, ptr %10, align 4
  %.sroa.5.0..sroa_idx.i = getelementptr inbounds nuw i8, ptr %10, i64 4
  store i32 %11, ptr %.sroa.5.0..sroa_idx.i, align 4
  %14 = getelementptr inbounds nuw i8, ptr %8, i64 8
  store ptr %12, ptr %14, align 8, !tbaa !272
  %15 = invoke noundef zeroext i1 @_ZN2cv11VideoWriter4openERKNSt7__cxx1112basic_stringIcSt11char_traitsIcESaIcEEEiidRKNS_5Size_IiEERKSt6vectorIiSaIiEE(ptr noundef nonnull align 8 dereferenceable(40) %0, ptr noundef nonnull align 8 dereferenceable(32) %1, i32 noundef 0, i32 noundef %2, double noundef %3, ptr noundef nonnull align 4 dereferenceable(8) %7, ptr noundef nonnull align 8 dereferenceable(24) %8)
          to label %16 unwind label %19

16:                                               ; preds = %.noexc
  %17 = load ptr, ptr %8, align 8, !tbaa !27
  %.not.i.i.i.i = icmp eq ptr %17, null
  br i1 %.not.i.i.i.i, label %23, label %18

18:                                               ; preds = %16
  call void @_ZdlPv(ptr noundef nonnull %17) #28
  br label %23

19:                                               ; preds = %.noexc
  %20 = landingpad { ptr, i32 }
          cleanup
  %21 = load ptr, ptr %8, align 8, !tbaa !27
  %.not.i.i.i8.i = icmp eq ptr %21, null
  br i1 %.not.i.i.i8.i, label %_ZNSt6vectorIiSaIiEED2Ev.exit9.i, label %22

22:                                               ; preds = %19
  call void @_ZdlPv(ptr noundef nonnull %21) #28
  br label %_ZNSt6vectorIiSaIiEED2Ev.exit9.i

_ZNSt6vectorIiSaIiEED2Ev.exit9.i:                 ; preds = %22, %19
  call void @llvm.lifetime.end.p0(i64 24, ptr nonnull %8) #27
  br label %.body

23:                                               ; preds = %18, %16
  call void @llvm.lifetime.end.p0(i64 24, ptr nonnull %8) #27
  call void @llvm.lifetime.end.p0(i64 8, ptr nonnull %7)
  ret void

24:                                               ; preds = %6
  %25 = landingpad { ptr, i32 }
          cleanup
  br label %.body

.body:                                            ; preds = %_ZNSt6vectorIiSaIiEED2Ev.exit9.i, %24
  %eh.lpad-body = phi { ptr, i32 } [ %25, %24 ], [ %20, %_ZNSt6vectorIiSaIiEED2Ev.exit9.i ]
  %26 = getelementptr inbounds nuw i8, ptr %0, i64 24
  tail call void @_ZNSt12__shared_ptrIN2cv12IVideoWriterELN9__gnu_cxx12_Lock_policyE2EED2Ev(ptr noundef nonnull align 8 dereferenceable(16) %26) #27
  tail call void @_ZNSt12__shared_ptrI13CvVideoWriterLN9__gnu_cxx12_Lock_policyE2EED2Ev(ptr noundef nonnull align 8 dereferenceable(16) %9) #27
  resume { ptr, i32 } %eh.lpad-body
}